target datalayout = "e-m:e-p270:32:32-p271:32:32-p272:64:64-i64:64-i128:128-f80:128-n8:16:32:64-S128"
target triple = "x86_64-pc-linux-gnu"

%"class.std::__cxx11::basic_string" = type { %"struct.std::__cxx11::basic_string<char>::_Alloc_hider", i64, %union.anon }
%"struct.std::__cxx11::basic_string<char>::_Alloc_hider" = type { ptr }
%union.anon = type { i64, [8 x i8] }
%"struct.DeformationModel::GridPrototype" = type { double, double, double, double, i32, i32 }
%"struct.(anonymous namespace)::Grid" = type { %"struct.DeformationModel::GridPrototype", ptr, ptr, i8, i8, i32, i32, i32 }

@_ZN16DeformationModelL10STR_DEGREEB5cxx11E = internal global %"class.std::__cxx11::basic_string" zeroinitializer, align 8

; Function Attrs: mustprogress uwtable
define internal noundef zeroext i1 @_ZNK12_GLOBAL__N_14Grid16getLongLatOffsetEiiRdS1_(ptr noundef nonnull align 8 dereferenceable(72) %0, i32 noundef %1, i32 noundef %2, ptr noundef nonnull align 8 dereferenceable(8) %3, ptr noundef nonnull align 8 dereferenceable(8) %4) #6 align 2 {
  %6 = alloca i1, align 1
  %7 = alloca ptr, align 8
  %8 = alloca i32, align 4
  %9 = alloca i32, align 4
  %10 = alloca ptr, align 8
  %11 = alloca ptr, align 8
  %12 = alloca float, align 4
  %13 = alloca float, align 4
  store ptr %0, ptr %7, align 8
  store i32 %1, ptr %8, align 4
  store i32 %2, ptr %9, align 4
  store ptr %3, ptr %10, align 8
  store ptr %4, ptr %11, align 8
  %14 = load ptr, ptr %7, align 8
  %15 = call noundef zeroext i1 @_ZNK12_GLOBAL__N_14Grid15checkHorizontalERKNSt7__cxx1112basic_stringIcSt11char_traitsIcESaIcEEE(ptr noundef nonnull align 8 dereferenceable(72) %14, ptr noundef nonnull align 8 dereferenceable(32) @_ZN16DeformationModelL10STR_DEGREEB5cxx11E)
  br i1 %15, label %17, label %16

16:                                               ; preds = %5
  store i1 false, ptr %6, align 1
  br label %49

17:                                               ; preds = %5
  %18 = getelementptr inbounds %"struct.(anonymous namespace)::Grid", ptr %14, i32 0, i32 2
  %19 = load ptr, ptr %18, align 8
  %20 = load i32, ptr %8, align 4
  %21 = load i32, ptr %9, align 4
  %22 = getelementptr inbounds %"struct.(anonymous namespace)::Grid", ptr %14, i32 0, i32 5
  %23 = load i32, ptr %22, align 4
  %24 = load ptr, ptr %19, align 8
  %25 = getelementptr inbounds ptr, ptr %24, i64 9
  %26 = load ptr, ptr %25, align 8
  %27 = call noundef zeroext i1 %26(ptr noundef nonnull align 8 dereferenceable(144) %19, i32 noundef %20, i32 noundef %21, i32 noundef %23, ptr noundef nonnull align 4 dereferenceable(4) %12)
  br i1 %27, label %28, label %39

28:                                               ; preds = %17
  %29 = getelementptr inbounds %"struct.(anonymous namespace)::Grid", ptr %14, i32 0, i32 2
  %30 = load ptr, ptr %29, align 8
  %31 = load i32, ptr %8, align 4
  %32 = load i32, ptr %9, align 4
  %33 = getelementptr inbounds %"struct.(anonymous namespace)::Grid", ptr %14, i32 0, i32 6
  %34 = load i32, ptr %33, align 8
  %35 = load ptr, ptr %30, align 8
  %36 = getelementptr inbounds ptr, ptr %35, i64 9
  %37 = load ptr, ptr %36, align 8
  %38 = call noundef zeroext i1 %37(ptr noundef nonnull align 8 dereferenceable(144) %30, i32 noundef %31, i32 noundef %32, i32 noundef %34, ptr noundef nonnull align 4 dereferenceable(4) %13)
  br i1 %38, label %40, label %39

39:                                               ; preds = %28, %17
  store i1 false, ptr %6, align 1
  br label %49

40:                                               ; preds = %28
  %41 = load float, ptr %12, align 4
  %42 = fpext float %41 to double
  %43 = fmul double %42, 0x3F91DF46A2529D39
  %44 = load ptr, ptr %10, align 8
  store double %43, ptr %44, align 8
  %45 = load float, ptr %13, align 4
  %46 = fpext float %45 to double
  %47 = fmul double %46, 0x3F91DF46A2529D39
  %48 = load ptr, ptr %11, align 8
  store double %47, ptr %48, align 8
  store i1 true, ptr %6, align 1
  br label %49

49:                                               ; preds = %40, %39, %16
  %50 = load i1, ptr %6, align 1
  ret i1 %50
}